; Function Attrs: mustprogress nounwind uwtable
define noundef zeroext i1 @_ZNK6casadi10SXFunction9is_smoothEv(ptr nocapture noundef nonnull readonly align 8 dereferenceable(1483) %0) local_unnamed_addr #4 align 2 {
  %2 = getelementptr inbounds i8, ptr %0, i64 1352
  %3 = load ptr, ptr %2, align 8
  %4 = getelementptr inbounds i8, ptr %0, i64 1360
  %5 = load ptr, ptr %4, align 8
  %.not8 = icmp eq ptr %3, %5
  br i1 %.not8, label %._crit_edge, label %.lr.ph

.lr.ph:                                           ; preds = %1, %.lr.ph
  %.sroa.05.09 = phi ptr [ %9, %.lr.ph ], [ %3, %1 ]
  %6 = load i32, ptr %.sroa.05.09, align 8
  %7 = sext i32 %6 to i64
  %8 = tail call noundef zeroext i1 @_ZN6casadi16operation_getterINS_13SmoothCheckerEbEET0_x(i64 noundef %7)
  %9 = getelementptr inbounds i8, ptr %.sroa.05.09, i64 16
  %.not = icmp ne ptr %9, %5
  %or.cond.not = select i1 %8, i1 %.not, i1 false
  br i1 %or.cond.not, label %.lr.ph, label %._crit_edge

._crit_edge:                                      ; preds = %.lr.ph, %1
  %.not.lcssa = phi i1 [ true, %1 ], [ %8, %.lr.ph ]
  ret i1 %.not.lcssa
}